; Function Attrs: mustprogress nounwind uwtable
define hidden void @_ZN16G1MonotonicArena15SegmentFreeList8free_allEv(ptr noundef nonnull align 8 dereferenceable(24) %0) local_unnamed_addr #1 align 2 {
  br label %2

2:                                                ; preds = %_ZN16G1MonotonicArena7Segment14delete_segmentEPS0_.exit, %1
  %.06 = phi i64 [ 0, %1 ], [ %17, %_ZN16G1MonotonicArena7Segment14delete_segmentEPS0_.exit ]
  %.0 = phi i64 [ 0, %1 ], [ %18, %_ZN16G1MonotonicArena7Segment14delete_segmentEPS0_.exit ]
  %3 = load volatile ptr, ptr %0, align 8
  br label %.backedge.i

.backedge.i:                                      ; preds = %.backedge.i.backedge, %2
  %.011.i = phi ptr [ %3, %2 ], [ %.011.i.be, %.backedge.i.backedge ]
  %.not.i = icmp eq ptr %.011.i, null
  br i1 %.not.i, label %4, label %.thread.i

4:                                                ; preds = %.backedge.i
  %5 = tail call noundef ptr asm sideeffect "lock cmpxchgq $1,($3)", "={ax},r,{ax},r,~{cc},~{memory},~{dirflag},~{fpsr},~{flags}"(ptr null, ptr null, ptr nonnull %0) #8, !srcloc !6
  %.not14.i = icmp eq ptr %5, null
  br i1 %.not14.i, label %_ZN13LockFreeStackIN16G1MonotonicArena7SegmentEXadL_ZNS0_15SegmentFreeList8next_ptrERS1_EEE3popEv.exit, label %.backedge.i.backedge

.thread.i:                                        ; preds = %.backedge.i
  %6 = getelementptr inbounds i8, ptr %.011.i, i64 8
  %7 = load volatile ptr, ptr %6, align 8
  %8 = tail call noundef ptr asm sideeffect "lock cmpxchgq $1,($3)", "={ax},r,{ax},r,~{cc},~{memory},~{dirflag},~{fpsr},~{flags}"(ptr %7, ptr nonnull %.011.i, ptr nonnull %0) #8, !srcloc !6
  %.not1417.i = icmp eq ptr %8, %.011.i
  br i1 %.not1417.i, label %_ZN13LockFreeStackIN16G1MonotonicArena7SegmentEXadL_ZNS0_15SegmentFreeList8next_ptrERS1_EEE3popEv.exit.thread, label %.backedge.i.backedge

.backedge.i.backedge:                             ; preds = %.thread.i, %4
  %.011.i.be = phi ptr [ %5, %4 ], [ %8, %.thread.i ]
  br label %.backedge.i, !llvm.loop !13

_ZN13LockFreeStackIN16G1MonotonicArena7SegmentEXadL_ZNS0_15SegmentFreeList8next_ptrERS1_EEE3popEv.exit.thread: ; preds = %.thread.i
  %9 = getelementptr inbounds i8, ptr %8, i64 8
  store volatile ptr null, ptr %9, align 8
  %10 = load i32, ptr %8, align 8
  %11 = getelementptr inbounds i8, ptr %8, i64 4
  %12 = load i32, ptr %11, align 4
  %13 = zext i32 %10 to i64
  %14 = zext i32 %12 to i64
  %15 = mul nuw i64 %14, %13
  %16 = add i64 %.06, 128
  %17 = add i64 %16, %15
  %18 = add i64 %.0, 1
  %19 = load volatile i8, ptr @_ZN7VM_Exit10_vm_exitedE, align 1
  %20 = trunc i8 %19 to i1
  br i1 %20, label %_ZN16G1MonotonicArena7Segment14delete_segmentEPS0_.exit, label %21

21:                                               ; preds = %_ZN13LockFreeStackIN16G1MonotonicArena7SegmentEXadL_ZNS0_15SegmentFreeList8next_ptrERS1_EEE3popEv.exit.thread
  tail call void @_ZN13GlobalCounter17write_synchronizeEv() #8
  br label %_ZN16G1MonotonicArena7Segment14delete_segmentEPS0_.exit

_ZN16G1MonotonicArena7Segment14delete_segmentEPS0_.exit: ; preds = %_ZN13LockFreeStackIN16G1MonotonicArena7SegmentEXadL_ZNS0_15SegmentFreeList8next_ptrERS1_EEE3popEv.exit.thread, %21
  tail call void @_Z8FreeHeapPv(ptr noundef nonnull %8) #8
  br label %2, !llvm.loop !14

_ZN13LockFreeStackIN16G1MonotonicArena7SegmentEXadL_ZNS0_15SegmentFreeList8next_ptrERS1_EEE3popEv.exit: ; preds = %4
  %22 = getelementptr inbounds i8, ptr %0, i64 8
  %23 = sub i64 0, %.0
  %24 = tail call noundef i64 asm sideeffect "lock xaddq $0,($2)", "=r,0,r,~{cc},~{memory},~{dirflag},~{fpsr},~{flags}"(i64 %23, ptr nonnull %22) #8, !srcloc !9
  %25 = getelementptr inbounds i8, ptr %0, i64 16
  %26 = sub i64 0, %.06
  %27 = tail call noundef i64 asm sideeffect "lock xaddq $0,($2)", "=r,0,r,~{cc},~{memory},~{dirflag},~{fpsr},~{flags}"(i64 %26, ptr nonnull %25) #8, !srcloc !9
  ret void
}